; Function Attrs: null_pointer_is_valid sspstrong uwtable
define internal noundef zeroext i1 @dissect_dnp3_tcp_heur(ptr noundef %0, ptr noundef %1, ptr noundef %2, ptr noundef %3) #0 {
  %5 = tail call i32 @tvb_captured_length(ptr noundef %0)
  %6 = icmp slt i32 %5, 10
  br i1 %6, label %check_dnp3_header.exit.thread, label %7

7:                                                ; preds = %4
  %8 = tail call zeroext i16 @crc16_0x3D65_tvb_offset_seed(ptr noundef %0, i32 noundef 0, i32 noundef 8, i16 noundef zeroext 0)
  %9 = tail call zeroext i16 @tvb_get_letohs(ptr noundef %0, i32 noundef 8)
  %10 = xor i16 %9, %8
  %11 = icmp eq i16 %10, -1
  br i1 %11, label %12, label %check_dnp3_header.exit.thread

12:                                               ; preds = %7
  %13 = tail call zeroext i16 @tvb_get_ntohs(ptr noundef %0, i32 noundef 0)
  %.not15.i = icmp eq i16 %13, 1380
  br i1 %.not15.i, label %check_dnp3_header.exit, label %check_dnp3_header.exit.thread

check_dnp3_header.exit:                           ; preds = %12
  tail call void @tcp_dissect_pdus(ptr noundef %0, ptr noundef %1, ptr noundef %2, i1 noundef zeroext true, i32 noundef 10, ptr noundef nonnull @get_dnp3_message_len, ptr noundef nonnull @dissect_dnp3_message, ptr noundef %3)
  br label %check_dnp3_header.exit.thread

check_dnp3_header.exit.thread:                    ; preds = %4, %7, %12, %check_dnp3_header.exit
  %.0.i7 = phi i1 [ true, %check_dnp3_header.exit ], [ false, %12 ], [ false, %7 ], [ false, %4 ]
  ret i1 %.0.i7
}